; Function Attrs: mustprogress uwtable
define hidden void @_ZNK6Assimp7Blender9Structure7ConvertINS0_5TFaceEEEvRT_RKNS0_12FileDatabaseE(ptr noundef nonnull align 8 dereferenceable(120) %0, ptr noundef nonnull align 8 dereferenceable(72) %1, ptr noundef nonnull align 8 dereferenceable(232) %2) local_unnamed_addr #0 align 2 personality ptr @__gxx_personality_v0 {
  %4 = getelementptr inbounds nuw i8, ptr %1, i64 16
  tail call void @_ZNK6Assimp7Blender9Structure15ReadFieldArray2ILi2EfLm4ELm2EEEvRAT1__AT2__T0_PKcRKNS0_12FileDatabaseE(ptr noundef nonnull align 8 dereferenceable(120) %0, ptr noundef nonnull align 4 dereferenceable(32) %4, ptr noundef nonnull @.str.49, ptr noundef nonnull align 8 dereferenceable(232) %2)
  %5 = getelementptr inbounds nuw i8, ptr %1, i64 48
  tail call void @_ZNK6Assimp7Blender9Structure14ReadFieldArrayILi2EiLm4EEEvRAT1__T0_PKcRKNS0_12FileDatabaseE(ptr noundef nonnull align 8 dereferenceable(120) %0, ptr noundef nonnull align 4 dereferenceable(16) %5, ptr noundef nonnull @.str.50, ptr noundef nonnull align 8 dereferenceable(232) %2)
  %6 = getelementptr inbounds nuw i8, ptr %1, i64 64
  tail call void @_ZNK6Assimp7Blender9Structure9ReadFieldILi0EcEEvRT0_PKcRKNS0_12FileDatabaseE(ptr noundef nonnull align 8 dereferenceable(120) %0, ptr noundef nonnull align 1 dereferenceable(1) %6, ptr noundef nonnull @.str.51, ptr noundef nonnull align 8 dereferenceable(232) %2)
  %7 = getelementptr inbounds nuw i8, ptr %1, i64 66
  tail call void @_ZNK6Assimp7Blender9Structure9ReadFieldILi0EsEEvRT0_PKcRKNS0_12FileDatabaseE(ptr noundef nonnull align 8 dereferenceable(120) %0, ptr noundef nonnull align 2 dereferenceable(2) %7, ptr noundef nonnull @.str.52, ptr noundef nonnull align 8 dereferenceable(232) %2)
  %8 = getelementptr inbounds nuw i8, ptr %1, i64 68
  tail call void @_ZNK6Assimp7Blender9Structure9ReadFieldILi0EsEEvRT0_PKcRKNS0_12FileDatabaseE(ptr noundef nonnull align 8 dereferenceable(120) %0, ptr noundef nonnull align 2 dereferenceable(2) %8, ptr noundef nonnull @.str.53, ptr noundef nonnull align 8 dereferenceable(232) %2)
  %9 = getelementptr inbounds nuw i8, ptr %1, i64 70
  tail call void @_ZNK6Assimp7Blender9Structure9ReadFieldILi0EsEEvRT0_PKcRKNS0_12FileDatabaseE(ptr noundef nonnull align 8 dereferenceable(120) %0, ptr noundef nonnull align 2 dereferenceable(2) %9, ptr noundef nonnull @.str.54, ptr noundef nonnull align 8 dereferenceable(232) %2)
  %10 = getelementptr inbounds nuw i8, ptr %2, i64 128
  %11 = load ptr, ptr %10, align 8
  %12 = getelementptr inbounds nuw i8, ptr %0, i64 104
  %13 = load i64, ptr %12, align 8
  %14 = getelementptr inbounds nuw i8, ptr %11, i64 24
  %15 = load ptr, ptr %14, align 8
  %16 = getelementptr inbounds i8, ptr %15, i64 %13
  store ptr %16, ptr %14, align 8
  %17 = getelementptr inbounds nuw i8, ptr %11, i64 40
  %18 = load ptr, ptr %17, align 8
  %19 = icmp ugt ptr %16, %18
  br i1 %19, label %20, label %_ZN6Assimp12StreamReaderILb1ELb1EE6IncPtrEl.exit

20:                                               ; preds = %3
  %21 = tail call ptr @__cxa_allocate_exception(i64 16) #23
  invoke void @_ZN17DeadlyImportErrorC2EPKc(ptr noundef nonnull align 8 dereferenceable(16) %21, ptr noundef nonnull @.str.307)
          to label %22 unwind label %23

22:                                               ; preds = %20
  tail call void @__cxa_throw(ptr nonnull %21, ptr nonnull @_ZTI17DeadlyImportError, ptr nonnull @_ZNSt13runtime_errorD2Ev) #24
  unreachable

23:                                               ; preds = %20
  %24 = landingpad { ptr, i32 }
          cleanup
  tail call void @__cxa_free_exception(ptr nonnull %21) #23
  resume { ptr, i32 } %24

_ZN6Assimp12StreamReaderILb1ELb1EE6IncPtrEl.exit: ; preds = %3
  ret void
}